target datalayout = "e-m:e-p270:32:32-p271:32:32-p272:64:64-i64:64-i128:128-f80:128-n8:16:32:64-S128"
target triple = "x86_64-pc-linux-gnu"

%struct._timelib_time = type { i64, i64, i64, i64, i64, i64, i64, i32, ptr, ptr, i32, %struct._timelib_rel_time, i64, i32, i32, i32, i32, i32, i32, i32, i32, i32 }
%struct._timelib_rel_time = type { i64, i64, i64, i64, i64, i64, i64, i32, i32, i32, i32, i64, %struct.anon, i32, i32 }
%struct.anon = type { i32, i64 }

; Function Attrs: nounwind uwtable
define hidden i64 @timelib_date_to_int(ptr noundef %0, ptr noundef %1) #0 {
  %3 = alloca i64, align 8
  %4 = alloca ptr, align 8
  %5 = alloca ptr, align 8
  %6 = alloca i64, align 8
  store ptr %0, ptr %4, align 8
  store ptr %1, ptr %5, align 8
  %7 = load ptr, ptr %4, align 8
  %8 = getelementptr inbounds %struct._timelib_time, ptr %7, i32 0, i32 12
  %9 = load i64, ptr %8, align 8
  store i64 %9, ptr %6, align 8
  %10 = load i64, ptr %6, align 8
  %11 = icmp slt i64 %10, -9223372036854775808
  br i1 %11, label %15, label %12

12:                                               ; preds = %2
  %13 = load i64, ptr %6, align 8
  %14 = icmp sgt i64 %13, 9223372036854775807
  br i1 %14, label %15, label %21

15:                                               ; preds = %12, %2
  %16 = load ptr, ptr %5, align 8
  %17 = icmp ne ptr %16, null
  br i1 %17, label %18, label %20

18:                                               ; preds = %15
  %19 = load ptr, ptr %5, align 8
  store i32 1, ptr %19, align 4
  br label %20

20:                                               ; preds = %18, %15
  store i64 0, ptr %3, align 8
  br label %30

21:                                               ; preds = %12
  %22 = load ptr, ptr %5, align 8
  %23 = icmp ne ptr %22, null
  br i1 %23, label %24, label %26

24:                                               ; preds = %21
  %25 = load ptr, ptr %5, align 8
  store i32 0, ptr %25, align 4
  br label %26

26:                                               ; preds = %24, %21
  %27 = load ptr, ptr %4, align 8
  %28 = getelementptr inbounds %struct._timelib_time, ptr %27, i32 0, i32 12
  %29 = load i64, ptr %28, align 8
  store i64 %29, ptr %3, align 8
  br label %30

30:                                               ; preds = %26, %20
  %31 = load i64, ptr %3, align 8
  ret i64 %31
}