; Function Attrs: mustprogress nofree norecurse nosync nounwind willreturn memory(argmem: readwrite) uwtable
define hidden i64 @timelib_date_to_int(ptr nocapture noundef readonly %0, ptr noundef writeonly %1) local_unnamed_addr #8 {
  %.not = icmp eq ptr %1, null
  br i1 %.not, label %4, label %3

3:                                                ; preds = %2
  store i32 0, ptr %1, align 4
  br label %4

4:                                                ; preds = %2, %3
  %5 = getelementptr inbounds i8, ptr %0, i64 192
  %6 = load i64, ptr %5, align 8
  ret i64 %6
}